target datalayout = "e-m:e-p270:32:32-p271:32:32-p272:64:64-i64:64-i128:128-f80:128-n8:16:32:64-S128"
target triple = "x86_64-pc-linux-gnu"

%class.btVector3 = type { [4 x float] }
%class.btPlane = type { %class.btVector3, float }

; Function Attrs: inlinehint mustprogress nounwind uwtable
define linkonce_odr dso_local void @_ZN9btVector3C2ERKfS1_S1_(ptr noundef nonnull align 4 dereferenceable(16) %0, ptr noundef nonnull align 4 dereferenceable(4) %1, ptr noundef nonnull align 4 dereferenceable(4) %2, ptr noundef nonnull align 4 dereferenceable(4) %3) unnamed_addr #5 comdat align 2 {
  %5 = alloca ptr, align 8
  %6 = alloca ptr, align 8
  %7 = alloca ptr, align 8
  %8 = alloca ptr, align 8
  store ptr %0, ptr %5, align 8, !tbaa !17
  store ptr %1, ptr %6, align 8, !tbaa !19
  store ptr %2, ptr %7, align 8, !tbaa !19
  store ptr %3, ptr %8, align 8, !tbaa !19
  %9 = load ptr, ptr %5, align 8
  %10 = load ptr, ptr %6, align 8, !tbaa !19
  %11 = load float, ptr %10, align 4, !tbaa !15
  %12 = getelementptr inbounds nuw %class.btVector3, ptr %9, i32 0, i32 0
  %13 = getelementptr inbounds [4 x float], ptr %12, i64 0, i64 0
  store float %11, ptr %13, align 4, !tbaa !15
  %14 = load ptr, ptr %7, align 8, !tbaa !19
  %15 = load float, ptr %14, align 4, !tbaa !15
  %16 = getelementptr inbounds nuw %class.btVector3, ptr %9, i32 0, i32 0
  %17 = getelementptr inbounds [4 x float], ptr %16, i64 0, i64 1
  store float %15, ptr %17, align 4, !tbaa !15
  %18 = load ptr, ptr %8, align 8, !tbaa !19
  %19 = load float, ptr %18, align 4, !tbaa !15
  %20 = getelementptr inbounds nuw %class.btVector3, ptr %9, i32 0, i32 0
  %21 = getelementptr inbounds [4 x float], ptr %20, i64 0, i64 2
  store float %19, ptr %21, align 4, !tbaa !15
  %22 = getelementptr inbounds nuw %class.btVector3, ptr %9, i32 0, i32 0
  %23 = getelementptr inbounds [4 x float], ptr %22, i64 0, i64 3
  store float 0.000000e+00, ptr %23, align 4, !tbaa !15
  ret void
}

; Function Attrs: inlinehint mustprogress nounwind uwtable
define linkonce_odr dso_local noundef float @_ZNK9btVector33dotERKS_(ptr noundef nonnull align 4 dereferenceable(16) %0, ptr noundef nonnull align 4 dereferenceable(16) %1) #5 comdat align 2 {
  %3 = alloca ptr, align 8
  %4 = alloca ptr, align 8
  store ptr %0, ptr %3, align 8, !tbaa !17
  store ptr %1, ptr %4, align 8, !tbaa !17
  %5 = load ptr, ptr %3, align 8
  %6 = getelementptr inbounds nuw %class.btVector3, ptr %5, i32 0, i32 0
  %7 = getelementptr inbounds [4 x float], ptr %6, i64 0, i64 0
  %8 = load float, ptr %7, align 4, !tbaa !15
  %9 = load ptr, ptr %4, align 8, !tbaa !17
  %10 = getelementptr inbounds nuw %class.btVector3, ptr %9, i32 0, i32 0
  %11 = getelementptr inbounds [4 x float], ptr %10, i64 0, i64 0
  %12 = load float, ptr %11, align 4, !tbaa !15
  %13 = getelementptr inbounds nuw %class.btVector3, ptr %5, i32 0, i32 0
  %14 = getelementptr inbounds [4 x float], ptr %13, i64 0, i64 1
  %15 = load float, ptr %14, align 4, !tbaa !15
  %16 = load ptr, ptr %4, align 8, !tbaa !17
  %17 = getelementptr inbounds nuw %class.btVector3, ptr %16, i32 0, i32 0
  %18 = getelementptr inbounds [4 x float], ptr %17, i64 0, i64 1
  %19 = load float, ptr %18, align 4, !tbaa !15
  %20 = fmul float %15, %19
  %21 = call float @llvm.fmuladd.f32(float %8, float %12, float %20)
  %22 = getelementptr inbounds nuw %class.btVector3, ptr %5, i32 0, i32 0
  %23 = getelementptr inbounds [4 x float], ptr %22, i64 0, i64 2
  %24 = load float, ptr %23, align 4, !tbaa !15
  %25 = load ptr, ptr %4, align 8, !tbaa !17
  %26 = getelementptr inbounds nuw %class.btVector3, ptr %25, i32 0, i32 0
  %27 = getelementptr inbounds [4 x float], ptr %26, i64 0, i64 2
  %28 = load float, ptr %27, align 4, !tbaa !15
  %29 = call float @llvm.fmuladd.f32(float %24, float %28, float %21)
  ret float %29
}

; Function Attrs: inlinehint mustprogress uwtable
define linkonce_odr dso_local { <2 x float>, <2 x float> } @_ZmiRK9btVector3S1_(ptr noundef nonnull align 4 dereferenceable(16) %0, ptr noundef nonnull align 4 dereferenceable(16) %1) #6 comdat {
  %3 = alloca %class.btVector3, align 4
  %4 = alloca ptr, align 8
  %5 = alloca ptr, align 8
  %6 = alloca float, align 4
  %7 = alloca float, align 4
  %8 = alloca float, align 4
  store ptr %0, ptr %4, align 8, !tbaa !17
  store ptr %1, ptr %5, align 8, !tbaa !17
  call void @llvm.lifetime.start.p0(i64 4, ptr %6) #14
  %9 = load ptr, ptr %4, align 8, !tbaa !17
  %10 = getelementptr inbounds nuw %class.btVector3, ptr %9, i32 0, i32 0
  %11 = getelementptr inbounds [4 x float], ptr %10, i64 0, i64 0
  %12 = load float, ptr %11, align 4, !tbaa !15
  %13 = load ptr, ptr %5, align 8, !tbaa !17
  %14 = getelementptr inbounds nuw %class.btVector3, ptr %13, i32 0, i32 0
  %15 = getelementptr inbounds [4 x float], ptr %14, i64 0, i64 0
  %16 = load float, ptr %15, align 4, !tbaa !15
  %17 = fsub float %12, %16
  store float %17, ptr %6, align 4, !tbaa !15
  call void @llvm.lifetime.start.p0(i64 4, ptr %7) #14
  %18 = load ptr, ptr %4, align 8, !tbaa !17
  %19 = getelementptr inbounds nuw %class.btVector3, ptr %18, i32 0, i32 0
  %20 = getelementptr inbounds [4 x float], ptr %19, i64 0, i64 1
  %21 = load float, ptr %20, align 4, !tbaa !15
  %22 = load ptr, ptr %5, align 8, !tbaa !17
  %23 = getelementptr inbounds nuw %class.btVector3, ptr %22, i32 0, i32 0
  %24 = getelementptr inbounds [4 x float], ptr %23, i64 0, i64 1
  %25 = load float, ptr %24, align 4, !tbaa !15
  %26 = fsub float %21, %25
  store float %26, ptr %7, align 4, !tbaa !15
  call void @llvm.lifetime.start.p0(i64 4, ptr %8) #14
  %27 = load ptr, ptr %4, align 8, !tbaa !17
  %28 = getelementptr inbounds nuw %class.btVector3, ptr %27, i32 0, i32 0
  %29 = getelementptr inbounds [4 x float], ptr %28, i64 0, i64 2
  %30 = load float, ptr %29, align 4, !tbaa !15
  %31 = load ptr, ptr %5, align 8, !tbaa !17
  %32 = getelementptr inbounds nuw %class.btVector3, ptr %31, i32 0, i32 0
  %33 = getelementptr inbounds [4 x float], ptr %32, i64 0, i64 2
  %34 = load float, ptr %33, align 4, !tbaa !15
  %35 = fsub float %30, %34
  store float %35, ptr %8, align 4, !tbaa !15
  call void @_ZN9btVector3C2ERKfS1_S1_(ptr noundef nonnull align 4 dereferenceable(16) %3, ptr noundef nonnull align 4 dereferenceable(4) %6, ptr noundef nonnull align 4 dereferenceable(4) %7, ptr noundef nonnull align 4 dereferenceable(4) %8)
  call void @llvm.lifetime.end.p0(i64 4, ptr %8) #14
  call void @llvm.lifetime.end.p0(i64 4, ptr %7) #14
  call void @llvm.lifetime.end.p0(i64 4, ptr %6) #14
  %36 = getelementptr inbounds nuw %class.btVector3, ptr %3, i32 0, i32 0
  %37 = load { <2 x float>, <2 x float> }, ptr %36, align 4
  ret { <2 x float>, <2 x float> } %37
}

; Function Attrs: inlinehint mustprogress uwtable
define linkonce_odr dso_local { <2 x float>, <2 x float> } @_ZmlRK9btVector3RKf(ptr noundef nonnull align 4 dereferenceable(16) %0, ptr noundef nonnull align 4 dereferenceable(4) %1) #6 comdat {
  %3 = alloca %class.btVector3, align 4
  %4 = alloca ptr, align 8
  %5 = alloca ptr, align 8
  %6 = alloca float, align 4
  %7 = alloca float, align 4
  %8 = alloca float, align 4
  store ptr %0, ptr %4, align 8, !tbaa !17
  store ptr %1, ptr %5, align 8, !tbaa !19
  call void @llvm.lifetime.start.p0(i64 4, ptr %6) #14
  %9 = load ptr, ptr %4, align 8, !tbaa !17
  %10 = getelementptr inbounds nuw %class.btVector3, ptr %9, i32 0, i32 0
  %11 = getelementptr inbounds [4 x float], ptr %10, i64 0, i64 0
  %12 = load float, ptr %11, align 4, !tbaa !15
  %13 = load ptr, ptr %5, align 8, !tbaa !19
  %14 = load float, ptr %13, align 4, !tbaa !15
  %15 = fmul float %12, %14
  store float %15, ptr %6, align 4, !tbaa !15
  call void @llvm.lifetime.start.p0(i64 4, ptr %7) #14
  %16 = load ptr, ptr %4, align 8, !tbaa !17
  %17 = getelementptr inbounds nuw %class.btVector3, ptr %16, i32 0, i32 0
  %18 = getelementptr inbounds [4 x float], ptr %17, i64 0, i64 1
  %19 = load float, ptr %18, align 4, !tbaa !15
  %20 = load ptr, ptr %5, align 8, !tbaa !19
  %21 = load float, ptr %20, align 4, !tbaa !15
  %22 = fmul float %19, %21
  store float %22, ptr %7, align 4, !tbaa !15
  call void @llvm.lifetime.start.p0(i64 4, ptr %8) #14
  %23 = load ptr, ptr %4, align 8, !tbaa !17
  %24 = getelementptr inbounds nuw %class.btVector3, ptr %23, i32 0, i32 0
  %25 = getelementptr inbounds [4 x float], ptr %24, i64 0, i64 2
  %26 = load float, ptr %25, align 4, !tbaa !15
  %27 = load ptr, ptr %5, align 8, !tbaa !19
  %28 = load float, ptr %27, align 4, !tbaa !15
  %29 = fmul float %26, %28
  store float %29, ptr %8, align 4, !tbaa !15
  call void @_ZN9btVector3C2ERKfS1_S1_(ptr noundef nonnull align 4 dereferenceable(16) %3, ptr noundef nonnull align 4 dereferenceable(4) %6, ptr noundef nonnull align 4 dereferenceable(4) %7, ptr noundef nonnull align 4 dereferenceable(4) %8)
  call void @llvm.lifetime.end.p0(i64 4, ptr %8) #14
  call void @llvm.lifetime.end.p0(i64 4, ptr %7) #14
  call void @llvm.lifetime.end.p0(i64 4, ptr %6) #14
  %30 = getelementptr inbounds nuw %class.btVector3, ptr %3, i32 0, i32 0
  %31 = load { <2 x float>, <2 x float> }, ptr %30, align 4
  ret { <2 x float>, <2 x float> } %31
}

; Function Attrs: inlinehint mustprogress nounwind uwtable
define linkonce_odr dso_local noundef float @_Z5btDotRK9btVector3S1_(ptr noundef nonnull align 4 dereferenceable(16) %0, ptr noundef nonnull align 4 dereferenceable(16) %1) #5 comdat {
  %3 = alloca ptr, align 8
  %4 = alloca ptr, align 8
  store ptr %0, ptr %3, align 8, !tbaa !17
  store ptr %1, ptr %4, align 8, !tbaa !17
  %5 = load ptr, ptr %3, align 8, !tbaa !17
  %6 = load ptr, ptr %4, align 8, !tbaa !17
  %7 = call noundef float @_ZNK9btVector33dotERKS_(ptr noundef nonnull align 4 dereferenceable(16) %5, ptr noundef nonnull align 4 dereferenceable(16) %6)
  ret float %7
}

; Function Attrs: mustprogress uwtable
define dso_local { <2 x float>, <2 x float> } @_Z12PlaneProjectRK7btPlaneRK9btVector3(ptr noundef nonnull align 4 dereferenceable(20) %0, ptr noundef nonnull align 4 dereferenceable(16) %1) #2 {
  %3 = alloca %class.btVector3, align 4
  %4 = alloca ptr, align 8
  %5 = alloca ptr, align 8
  %6 = alloca %class.btVector3, align 4
  %7 = alloca float, align 4
  store ptr %0, ptr %4, align 8, !tbaa !12
  store ptr %1, ptr %5, align 8, !tbaa !17
  %8 = load ptr, ptr %5, align 8, !tbaa !17
  call void @llvm.lifetime.start.p0(i64 16, ptr %6) #14
  %9 = load ptr, ptr %4, align 8, !tbaa !12
  %10 = getelementptr inbounds nuw %class.btPlane, ptr %9, i32 0, i32 0
  call void @llvm.lifetime.start.p0(i64 4, ptr %7) #14
  %11 = load ptr, ptr %5, align 8, !tbaa !17
  %12 = load ptr, ptr %4, align 8, !tbaa !12
  %13 = getelementptr inbounds nuw %class.btPlane, ptr %12, i32 0, i32 0
  %14 = call noundef float @_Z5btDotRK9btVector3S1_(ptr noundef nonnull align 4 dereferenceable(16) %11, ptr noundef nonnull align 4 dereferenceable(16) %13)
  %15 = load ptr, ptr %4, align 8, !tbaa !12
  %16 = getelementptr inbounds nuw %class.btPlane, ptr %15, i32 0, i32 1
  %17 = load float, ptr %16, align 4, !tbaa !21
  %18 = fadd float %14, %17
  store float %18, ptr %7, align 4, !tbaa !15
  %19 = call { <2 x float>, <2 x float> } @_ZmlRK9btVector3RKf(ptr noundef nonnull align 4 dereferenceable(16) %10, ptr noundef nonnull align 4 dereferenceable(4) %7)
  %20 = getelementptr inbounds nuw %class.btVector3, ptr %6, i32 0, i32 0
  %21 = getelementptr inbounds nuw { <2 x float>, <2 x float> }, ptr %20, i32 0, i32 0
  %22 = extractvalue { <2 x float>, <2 x float> } %19, 0
  store <2 x float> %22, ptr %21, align 4
  %23 = getelementptr inbounds nuw { <2 x float>, <2 x float> }, ptr %20, i32 0, i32 1
  %24 = extractvalue { <2 x float>, <2 x float> } %19, 1
  store <2 x float> %24, ptr %23, align 4
  %25 = call { <2 x float>, <2 x float> } @_ZmiRK9btVector3S1_(ptr noundef nonnull align 4 dereferenceable(16) %8, ptr noundef nonnull align 4 dereferenceable(16) %6)
  %26 = getelementptr inbounds nuw %class.btVector3, ptr %3, i32 0, i32 0
  %27 = getelementptr inbounds nuw { <2 x float>, <2 x float> }, ptr %26, i32 0, i32 0
  %28 = extractvalue { <2 x float>, <2 x float> } %25, 0
  store <2 x float> %28, ptr %27, align 4
  %29 = getelementptr inbounds nuw { <2 x float>, <2 x float> }, ptr %26, i32 0, i32 1
  %30 = extractvalue { <2 x float>, <2 x float> } %25, 1
  store <2 x float> %30, ptr %29, align 4
  call void @llvm.lifetime.end.p0(i64 4, ptr %7) #14
  call void @llvm.lifetime.end.p0(i64 16, ptr %6) #14
  %31 = getelementptr inbounds nuw %class.btVector3, ptr %3, i32 0, i32 0
  %32 = load { <2 x float>, <2 x float> }, ptr %31, align 4
  ret { <2 x float>, <2 x float> } %32
}