; Function Attrs: mustprogress nofree norecurse nosync nounwind willreturn memory(argmem: read) uwtable
define dso_local { <2 x float>, <2 x float> } @_Z12PlaneProjectRK7btPlaneRK9btVector3(ptr noundef nonnull readonly align 4 captures(none) dereferenceable(20) %0, ptr noundef nonnull readonly align 4 captures(none) dereferenceable(16) %1) local_unnamed_addr #0 {
  %3 = load float, ptr %1, align 4, !tbaa !4
  %4 = load float, ptr %0, align 4, !tbaa !4
  %5 = getelementptr inbounds nuw i8, ptr %1, i64 4
  %6 = load float, ptr %5, align 4, !tbaa !4
  %7 = getelementptr inbounds nuw i8, ptr %0, i64 4
  %8 = load float, ptr %7, align 4, !tbaa !4
  %9 = fmul float %6, %8
  %10 = tail call float @llvm.fmuladd.f32(float %3, float %4, float %9)
  %11 = getelementptr inbounds nuw i8, ptr %1, i64 8
  %12 = load float, ptr %11, align 4, !tbaa !4
  %13 = getelementptr inbounds nuw i8, ptr %0, i64 8
  %14 = load float, ptr %13, align 4, !tbaa !4
  %15 = tail call noundef float @llvm.fmuladd.f32(float %12, float %14, float %10)
  %16 = getelementptr inbounds nuw i8, ptr %0, i64 16
  %17 = load float, ptr %16, align 4, !tbaa !8
  %18 = fadd float %15, %17
  %19 = fmul float %4, %18
  %20 = fmul float %8, %18
  %21 = fmul float %14, %18
  %22 = fsub float %3, %19
  %23 = fsub float %6, %20
  %24 = fsub float %12, %21
  %.sroa.0.0.vec.insert.i5 = insertelement <2 x float> poison, float %22, i64 0
  %.sroa.0.4.vec.insert.i6 = insertelement <2 x float> %.sroa.0.0.vec.insert.i5, float %23, i64 1
  %.sroa.3.12.vec.insert.i7 = insertelement <2 x float> <float poison, float 0.000000e+00>, float %24, i64 0
  %.fca.0.insert.i8 = insertvalue { <2 x float>, <2 x float> } poison, <2 x float> %.sroa.0.4.vec.insert.i6, 0
  %.fca.1.insert.i9 = insertvalue { <2 x float>, <2 x float> } %.fca.0.insert.i8, <2 x float> %.sroa.3.12.vec.insert.i7, 1
  ret { <2 x float>, <2 x float> } %.fca.1.insert.i9
}